; Function Attrs: mustprogress nounwind uwtable
define hidden void @_ZN16NullCheckVisitor11do_ConstantEP8Constant(ptr nocapture noundef nonnull readonly align 8 dereferenceable(16) %0, ptr nocapture noundef readonly %1) unnamed_addr #1 align 2 {
  %3 = getelementptr inbounds i8, ptr %0, i64 8
  %4 = load ptr, ptr %3, align 8
  %5 = getelementptr inbounds i8, ptr %1, i64 24
  %6 = load ptr, ptr %5, align 8
  %7 = load ptr, ptr %6, align 8
  %8 = getelementptr inbounds i8, ptr %7, i64 72
  %9 = load ptr, ptr %8, align 8
  %10 = tail call noundef ptr %9(ptr noundef nonnull align 8 dereferenceable(16) %6) #14
  %.not.i = icmp eq ptr %10, null
  br i1 %.not.i, label %_ZN19NullCheckEliminator15handle_ConstantEP8Constant.exit, label %11

11:                                               ; preds = %2
  %12 = tail call noundef zeroext i1 @_ZNK10ObjectType9is_loadedEv(ptr noundef nonnull align 8 dereferenceable(16) %10) #14
  br i1 %12, label %13, label %_ZN19NullCheckEliminator15handle_ConstantEP8Constant.exit

13:                                               ; preds = %11
  %14 = load ptr, ptr %10, align 8
  %15 = getelementptr inbounds i8, ptr %14, i64 168
  %16 = load ptr, ptr %15, align 8
  %17 = tail call noundef ptr %16(ptr noundef nonnull align 8 dereferenceable(16) %10) #14
  %18 = icmp eq ptr %17, null
  br i1 %18, label %26, label %19

19:                                               ; preds = %13
  %20 = getelementptr inbounds i8, ptr %17, i64 16
  %21 = load ptr, ptr %20, align 8
  %22 = load ptr, ptr %21, align 8
  %23 = getelementptr inbounds i8, ptr %22, i64 40
  %24 = load ptr, ptr %23, align 8
  %25 = tail call noundef zeroext i1 %24(ptr noundef nonnull align 8 dereferenceable(40) %21) #14
  br i1 %25, label %_ZN19NullCheckEliminator15handle_ConstantEP8Constant.exit, label %26

26:                                               ; preds = %19, %13
  %27 = getelementptr inbounds i8, ptr %4, i64 32
  %28 = load ptr, ptr %27, align 8
  %29 = getelementptr inbounds i8, ptr %1, i64 8
  %30 = load i32, ptr %29, align 8
  %31 = sext i32 %30 to i64
  %32 = and i64 %31, 63
  %33 = shl nuw i64 1, %32
  %34 = load ptr, ptr %28, align 8
  %35 = lshr i64 %31, 6
  %36 = getelementptr inbounds i64, ptr %34, i64 %35
  %37 = load i64, ptr %36, align 8
  %38 = or i64 %33, %37
  store i64 %38, ptr %36, align 8
  br label %_ZN19NullCheckEliminator15handle_ConstantEP8Constant.exit

_ZN19NullCheckEliminator15handle_ConstantEP8Constant.exit: ; preds = %2, %11, %19, %26
  ret void
}